; Function Attrs: mustprogress nofree norecurse nosync nounwind willreturn memory(read, inaccessiblemem: none) uwtable
define dso_local noundef nonnull align 8 dereferenceable(1488) ptr @_ZN3igl6opengl4glfw6Viewer4dataEi(ptr noundef nonnull readonly align 16 captures(none) dereferenceable(616) %0, i32 noundef %1) local_unnamed_addr #4 align 2 {
  %3 = icmp eq i32 %1, -1
  br i1 %3, label %4, label %7

4:                                                ; preds = %2
  %5 = getelementptr inbounds nuw i8, ptr %0, i64 32
  %6 = load i64, ptr %5, align 16, !tbaa !141
  %.phi.trans.insert = getelementptr inbounds nuw i8, ptr %0, i64 8
  %.pre = load ptr, ptr %.phi.trans.insert, align 8, !tbaa !151
  br label %_ZNK3igl6opengl4glfw6Viewer10mesh_indexEi.exit

7:                                                ; preds = %2
  %8 = getelementptr inbounds nuw i8, ptr %0, i64 8
  %9 = getelementptr inbounds nuw i8, ptr %0, i64 16
  %10 = load ptr, ptr %9, align 16, !tbaa !176
  %11 = load ptr, ptr %8, align 8, !tbaa !151
  %.not9.not.i = icmp eq ptr %10, %11
  br i1 %.not9.not.i, label %_ZNK3igl6opengl4glfw6Viewer10mesh_indexEi.exit, label %.lr.ph.preheader.i

.lr.ph.preheader.i:                               ; preds = %7
  %12 = ptrtoint ptr %10 to i64
  %13 = ptrtoint ptr %11 to i64
  %14 = sub i64 %12, %13
  %15 = sdiv exact i64 %14, 1488
  %umax.i = tail call i64 @llvm.umax.i64(i64 %15, i64 1)
  br label %.lr.ph.i

.lr.ph.i:                                         ; preds = %19, %.lr.ph.preheader.i
  %.0710.i = phi i64 [ %20, %19 ], [ 0, %.lr.ph.preheader.i ]
  %16 = getelementptr inbounds nuw %"class.igl::opengl::ViewerData", ptr %11, i64 %.0710.i, i32 44
  %17 = load i32, ptr %16, align 8, !tbaa !144
  %18 = icmp eq i32 %17, %1
  br i1 %18, label %_ZNK3igl6opengl4glfw6Viewer10mesh_indexEi.exit, label %19

19:                                               ; preds = %.lr.ph.i
  %20 = add nuw i64 %.0710.i, 1
  %exitcond.not.i = icmp eq i64 %20, %umax.i
  br i1 %exitcond.not.i, label %_ZNK3igl6opengl4glfw6Viewer10mesh_indexEi.exit, label %.lr.ph.i, !llvm.loop !180

_ZNK3igl6opengl4glfw6Viewer10mesh_indexEi.exit:   ; preds = %19, %.lr.ph.i, %7, %4
  %21 = phi ptr [ %.pre, %4 ], [ %11, %7 ], [ %11, %.lr.ph.i ], [ %11, %19 ]
  %.0.in = phi i64 [ %6, %4 ], [ 0, %7 ], [ 0, %19 ], [ %.0710.i, %.lr.ph.i ]
  %sext = shl i64 %.0.in, 32
  %22 = ashr exact i64 %sext, 32
  %23 = getelementptr inbounds nuw %"class.igl::opengl::ViewerData", ptr %21, i64 %22
  ret ptr %23
}